target datalayout = "e-m:e-p270:32:32-p271:32:32-p272:64:64-i64:64-i128:128-f80:128-n8:16:32:64-S128"
target triple = "x86_64-pc-linux-gnu"

%struct.FunctionCallInfoBaseData = type { ptr, ptr, ptr, i32, i8, i16, [0 x %struct.NullableDatum] }
%struct.NullableDatum = type { i64, i8 }
%union.anon = type { i64 }

@.str.3 = private unnamed_addr constant [7 x i8] c"date.c\00", align 1
@.str.22 = private unnamed_addr constant [44 x i8] c"time field value out of range: %d:%02d:%02g\00", align 1
@__func__.make_time = private unnamed_addr constant [10 x i8] c"make_time\00", align 1

; Function Attrs: inlinehint nounwind uwtable
define internal i64 @Int64GetDatum(i64 noundef %0) #4 {
  %2 = alloca i64, align 8
  store i64 %0, ptr %2, align 8
  %3 = load i64, ptr %2, align 8
  ret i64 %3
}

; Function Attrs: inlinehint nounwind uwtable
define internal i64 @DatumGetInt64(i64 noundef %0) #4 {
  %2 = alloca i64, align 8
  store i64 %0, ptr %2, align 8
  %3 = load i64, ptr %2, align 8
  ret i64 %3
}

; Function Attrs: inlinehint nounwind uwtable
define internal i64 @TimeADTGetDatum(i64 noundef %0) #4 {
  %2 = alloca i64, align 8
  store i64 %0, ptr %2, align 8
  %3 = load i64, ptr %2, align 8
  %4 = call i64 @Int64GetDatum(i64 noundef %3)
  ret i64 %4
}

; Function Attrs: nounwind uwtable
define dso_local zeroext i1 @float_time_overflows(i32 noundef %0, i32 noundef %1, double noundef %2) #0 {
  %4 = alloca i1, align 1
  %5 = alloca i32, align 4
  %6 = alloca i32, align 4
  %7 = alloca double, align 8
  store i32 %0, ptr %5, align 4
  store i32 %1, ptr %6, align 4
  store double %2, ptr %7, align 8
  %8 = load i32, ptr %5, align 4
  %9 = icmp slt i32 %8, 0
  br i1 %9, label %19, label %10

10:                                               ; preds = %3
  %11 = load i32, ptr %5, align 4
  %12 = icmp sgt i32 %11, 24
  br i1 %12, label %19, label %13

13:                                               ; preds = %10
  %14 = load i32, ptr %6, align 4
  %15 = icmp slt i32 %14, 0
  br i1 %15, label %19, label %16

16:                                               ; preds = %13
  %17 = load i32, ptr %6, align 4
  %18 = icmp sge i32 %17, 60
  br i1 %18, label %19, label %20

19:                                               ; preds = %16, %13, %10, %3
  store i1 true, ptr %4, align 1
  br label %48

20:                                               ; preds = %16
  %21 = load double, ptr %7, align 8
  %22 = call i1 @llvm.is.fpclass.f64(double %21, i32 3)
  br i1 %22, label %23, label %24

23:                                               ; preds = %20
  store i1 true, ptr %4, align 1
  br label %48

24:                                               ; preds = %20
  %25 = load double, ptr %7, align 8
  %26 = fmul double %25, 1.000000e+06
  %27 = call double @llvm.rint.f64(double %26)
  store double %27, ptr %7, align 8
  %28 = load double, ptr %7, align 8
  %29 = fcmp olt double %28, 0.000000e+00
  br i1 %29, label %33, label %30

30:                                               ; preds = %24
  %31 = load double, ptr %7, align 8
  %32 = fcmp ogt double %31, 6.000000e+07
  br i1 %32, label %33, label %34

33:                                               ; preds = %30, %24
  store i1 true, ptr %4, align 1
  br label %48

34:                                               ; preds = %30
  %35 = load i32, ptr %5, align 4
  %36 = mul i32 %35, 60
  %37 = load i32, ptr %6, align 4
  %38 = add i32 %36, %37
  %39 = mul i32 %38, 60
  %40 = sext i32 %39 to i64
  %41 = mul i64 %40, 1000000
  %42 = load double, ptr %7, align 8
  %43 = fptosi double %42 to i64
  %44 = add i64 %41, %43
  %45 = icmp sgt i64 %44, 86400000000
  br i1 %45, label %46, label %47

46:                                               ; preds = %34
  store i1 true, ptr %4, align 1
  br label %48

47:                                               ; preds = %34
  store i1 false, ptr %4, align 1
  br label %48

48:                                               ; preds = %47, %46, %33, %23, %19
  %49 = load i1, ptr %4, align 1
  ret i1 %49
}

; Function Attrs: inlinehint nounwind uwtable
define internal double @DatumGetFloat8(i64 noundef %0) #4 {
  %2 = alloca i64, align 8
  %3 = alloca %union.anon, align 8
  store i64 %0, ptr %2, align 8
  call void @llvm.lifetime.start.p0(i64 8, ptr %3) #9
  %4 = load i64, ptr %2, align 8
  %5 = call i64 @DatumGetInt64(i64 noundef %4)
  store i64 %5, ptr %3, align 8
  %6 = load double, ptr %3, align 8
  call void @llvm.lifetime.end.p0(i64 8, ptr %3) #9
  ret double %6
}

; Function Attrs: inlinehint nounwind uwtable
define internal i32 @DatumGetInt32(i64 noundef %0) #4 {
  %2 = alloca i64, align 8
  store i64 %0, ptr %2, align 8
  %3 = load i64, ptr %2, align 8
  %4 = trunc i64 %3 to i32
  ret i32 %4
}

; Function Attrs: nounwind uwtable
define dso_local i64 @make_time(ptr noundef %0) #0 {
  %2 = alloca ptr, align 8
  %3 = alloca i32, align 4
  %4 = alloca i32, align 4
  %5 = alloca double, align 8
  %6 = alloca i64, align 8
  store ptr %0, ptr %2, align 8
  call void @llvm.lifetime.start.p0(i64 4, ptr %3) #9
  %7 = load ptr, ptr %2, align 8
  %8 = getelementptr inbounds nuw %struct.FunctionCallInfoBaseData, ptr %7, i32 0, i32 6
  %9 = getelementptr inbounds [0 x %struct.NullableDatum], ptr %8, i64 0, i64 0
  %10 = getelementptr inbounds nuw %struct.NullableDatum, ptr %9, i32 0, i32 0
  %11 = load i64, ptr %10, align 8
  %12 = call i32 @DatumGetInt32(i64 noundef %11)
  store i32 %12, ptr %3, align 4
  call void @llvm.lifetime.start.p0(i64 4, ptr %4) #9
  %13 = load ptr, ptr %2, align 8
  %14 = getelementptr inbounds nuw %struct.FunctionCallInfoBaseData, ptr %13, i32 0, i32 6
  %15 = getelementptr inbounds [0 x %struct.NullableDatum], ptr %14, i64 0, i64 1
  %16 = getelementptr inbounds nuw %struct.NullableDatum, ptr %15, i32 0, i32 0
  %17 = load i64, ptr %16, align 8
  %18 = call i32 @DatumGetInt32(i64 noundef %17)
  store i32 %18, ptr %4, align 4
  call void @llvm.lifetime.start.p0(i64 8, ptr %5) #9
  %19 = load ptr, ptr %2, align 8
  %20 = getelementptr inbounds nuw %struct.FunctionCallInfoBaseData, ptr %19, i32 0, i32 6
  %21 = getelementptr inbounds [0 x %struct.NullableDatum], ptr %20, i64 0, i64 2
  %22 = getelementptr inbounds nuw %struct.NullableDatum, ptr %21, i32 0, i32 0
  %23 = load i64, ptr %22, align 8
  %24 = call double @DatumGetFloat8(i64 noundef %23)
  store double %24, ptr %5, align 8
  call void @llvm.lifetime.start.p0(i64 8, ptr %6) #9
  %25 = load i32, ptr %3, align 4
  %26 = load i32, ptr %4, align 4
  %27 = load double, ptr %5, align 8
  %28 = call zeroext i1 @float_time_overflows(i32 noundef %25, i32 noundef %26, double noundef %27)
  br i1 %28, label %29, label %44

29:                                               ; preds = %1
  br label %30

30:                                               ; preds = %29
  br i1 true, label %31, label %33

31:                                               ; preds = %30
  %32 = call zeroext i1 @errstart_cold(i32 noundef 21, ptr noundef null) #8
  br i1 %32, label %35, label %41

33:                                               ; preds = %30
  %34 = call zeroext i1 @errstart(i32 noundef 21, ptr noundef null)
  br i1 %34, label %35, label %41

35:                                               ; preds = %33, %31
  %36 = call i32 @errcode(i32 noundef 134217858)
  %37 = load i32, ptr %3, align 4
  %38 = load i32, ptr %4, align 4
  %39 = load double, ptr %5, align 8
  %40 = call i32 (ptr, ...) @errmsg(ptr noundef @.str.22, i32 noundef %37, i32 noundef %38, double noundef %39)
  call void @errfinish(ptr noundef @.str.3, i32 noundef 1608, ptr noundef @__func__.make_time)
  br label %41

41:                                               ; preds = %35, %33, %31
  unreachable

42:                                               ; No predecessors!
  br label %43

43:                                               ; preds = %42
  br label %44

44:                                               ; preds = %43, %1
  %45 = load i32, ptr %3, align 4
  %46 = mul i32 %45, 60
  %47 = load i32, ptr %4, align 4
  %48 = add i32 %46, %47
  %49 = mul i32 %48, 60
  %50 = sext i32 %49 to i64
  %51 = mul i64 %50, 1000000
  %52 = load double, ptr %5, align 8
  %53 = fmul double %52, 1.000000e+06
  %54 = call double @llvm.rint.f64(double %53)
  %55 = fptosi double %54 to i64
  %56 = add i64 %51, %55
  store i64 %56, ptr %6, align 8
  %57 = load i64, ptr %6, align 8
  %58 = call i64 @TimeADTGetDatum(i64 noundef %57)
  call void @llvm.lifetime.end.p0(i64 8, ptr %6) #9
  call void @llvm.lifetime.end.p0(i64 8, ptr %5) #9
  call void @llvm.lifetime.end.p0(i64 4, ptr %4) #9
  call void @llvm.lifetime.end.p0(i64 4, ptr %3) #9
  ret i64 %58
}