; Function Attrs: nounwind uwtable
define dso_local range(i64 -9223372036854775808, 86400000001) i64 @make_time(ptr noundef readonly captures(none) %0) local_unnamed_addr #0 {
  %2 = getelementptr inbounds nuw i8, ptr %0, i64 32
  %3 = load i64, ptr %2, align 8
  %4 = trunc i64 %3 to i32
  %5 = getelementptr inbounds nuw i8, ptr %0, i64 48
  %6 = load i64, ptr %5, align 8
  %7 = trunc i64 %6 to i32
  %8 = getelementptr inbounds nuw i8, ptr %0, i64 64
  %9 = load double, ptr %8, align 8
  %or.cond.i = icmp ugt i32 %4, 24
  %10 = icmp ugt i32 %7, 59
  %or.cond5.i = or i1 %or.cond.i, %10
  %11 = fcmp uno double %9, 0.000000e+00
  %or.cond21.i = or i1 %11, %or.cond5.i
  br i1 %or.cond21.i, label %float_time_overflows.exit.thread, label %12

12:                                               ; preds = %1
  %13 = fmul double %9, 1.000000e+06
  %14 = tail call double @llvm.rint.f64(double %13)
  %15 = fcmp olt double %14, 0.000000e+00
  %16 = fcmp ogt double %14, 6.000000e+07
  %or.cond7.i = or i1 %15, %16
  br i1 %or.cond7.i, label %float_time_overflows.exit.thread, label %float_time_overflows.exit

float_time_overflows.exit:                        ; preds = %12
  %17 = mul i64 %3, 60
  %18 = add i64 %17, %6
  %19 = mul i64 %18, 60
  %20 = and i64 %19, 4294967292
  %21 = mul nuw nsw i64 %20, 1000000
  %22 = fptosi double %14 to i64
  %23 = add i64 %21, %22
  %24 = icmp sgt i64 %23, 86400000000
  br i1 %24, label %float_time_overflows.exit.thread, label %28

float_time_overflows.exit.thread:                 ; preds = %12, %1, %float_time_overflows.exit
  %25 = tail call zeroext i1 @errstart_cold(i32 noundef 21, ptr noundef null) #15
  tail call void @llvm.assume(i1 %25)
  %26 = tail call i32 @errcode(i32 noundef 134217858) #16
  %27 = tail call i32 (ptr, ...) @errmsg(ptr noundef nonnull @.str.22, i32 noundef %4, i32 noundef %7, double noundef %9) #16
  tail call void @errfinish(ptr noundef nonnull @.str.3, i32 noundef 1608, ptr noundef nonnull @__func__.make_time) #16
  unreachable

28:                                               ; preds = %float_time_overflows.exit
  ret i64 %23
}